target datalayout = "e-m:e-p270:32:32-p271:32:32-p272:64:64-i64:64-i128:128-f80:128-n8:16:32:64-S128"
target triple = "x86_64-pc-linux-gnu"

%struct._FUserData = type { ptr, ptr, ptr, ptr, ptr, ptr, ptr, ptr, ptr }

; Function Attrs: nounwind uwtable
define i32 @ipgetcurriterate_(ptr noundef %0, ptr noundef %1, ptr noundef %2, ptr noundef %3, ptr noundef %4, ptr noundef %5, ptr noundef %6, ptr noundef %7, ptr noundef %8, ptr noundef %9, ptr noundef %10, ptr noundef %11, ptr noundef %12) #0 {
  %14 = alloca ptr, align 8
  %15 = alloca ptr, align 8
  %16 = alloca ptr, align 8
  %17 = alloca ptr, align 8
  %18 = alloca ptr, align 8
  %19 = alloca ptr, align 8
  %20 = alloca ptr, align 8
  %21 = alloca ptr, align 8
  %22 = alloca ptr, align 8
  %23 = alloca ptr, align 8
  %24 = alloca ptr, align 8
  %25 = alloca ptr, align 8
  %26 = alloca ptr, align 8
  %27 = alloca ptr, align 8
  store ptr %0, ptr %14, align 8, !tbaa !32
  store ptr %1, ptr %15, align 8, !tbaa !3
  store ptr %2, ptr %16, align 8, !tbaa !3
  store ptr %3, ptr %17, align 8, !tbaa !3
  store ptr %4, ptr %18, align 8, !tbaa !3
  store ptr %5, ptr %19, align 8, !tbaa !3
  store ptr %6, ptr %20, align 8, !tbaa !3
  store ptr %7, ptr %21, align 8, !tbaa !8
  store ptr %8, ptr %22, align 8, !tbaa !8
  store ptr %9, ptr %23, align 8, !tbaa !8
  store ptr %10, ptr %24, align 8, !tbaa !3
  store ptr %11, ptr %25, align 8, !tbaa !8
  store ptr %12, ptr %26, align 8, !tbaa !8
  call void @llvm.lifetime.start.p0(i64 8, ptr %27) #6
  %28 = load ptr, ptr %14, align 8, !tbaa !32
  %29 = load ptr, ptr %28, align 8, !tbaa !10
  store ptr %29, ptr %27, align 8, !tbaa !13
  %30 = load ptr, ptr %27, align 8, !tbaa !13
  %31 = getelementptr inbounds nuw %struct._FUserData, ptr %30, i32 0, i32 8
  %32 = load ptr, ptr %31, align 8, !tbaa !15
  %33 = load ptr, ptr %15, align 8, !tbaa !3
  %34 = load i32, ptr %33, align 4, !tbaa !11
  %35 = icmp ne i32 %34, 0
  %36 = load ptr, ptr %20, align 8, !tbaa !3
  %37 = load i32, ptr %36, align 4, !tbaa !11
  %38 = load ptr, ptr %16, align 8, !tbaa !3
  %39 = load i32, ptr %38, align 4, !tbaa !11
  %40 = icmp ne i32 %39, 0
  br i1 %40, label %41, label %43

41:                                               ; preds = %13
  %42 = load ptr, ptr %21, align 8, !tbaa !8
  br label %44

43:                                               ; preds = %13
  br label %44

44:                                               ; preds = %43, %41
  %45 = phi ptr [ %42, %41 ], [ null, %43 ]
  %46 = load ptr, ptr %17, align 8, !tbaa !3
  %47 = load i32, ptr %46, align 4, !tbaa !11
  %48 = icmp ne i32 %47, 0
  br i1 %48, label %49, label %51

49:                                               ; preds = %44
  %50 = load ptr, ptr %22, align 8, !tbaa !8
  br label %52

51:                                               ; preds = %44
  br label %52

52:                                               ; preds = %51, %49
  %53 = phi ptr [ %50, %49 ], [ null, %51 ]
  %54 = load ptr, ptr %17, align 8, !tbaa !3
  %55 = load i32, ptr %54, align 4, !tbaa !11
  %56 = icmp ne i32 %55, 0
  br i1 %56, label %57, label %59

57:                                               ; preds = %52
  %58 = load ptr, ptr %23, align 8, !tbaa !8
  br label %60

59:                                               ; preds = %52
  br label %60

60:                                               ; preds = %59, %57
  %61 = phi ptr [ %58, %57 ], [ null, %59 ]
  %62 = load ptr, ptr %24, align 8, !tbaa !3
  %63 = load i32, ptr %62, align 4, !tbaa !11
  %64 = load ptr, ptr %18, align 8, !tbaa !3
  %65 = load i32, ptr %64, align 4, !tbaa !11
  %66 = icmp ne i32 %65, 0
  br i1 %66, label %67, label %69

67:                                               ; preds = %60
  %68 = load ptr, ptr %25, align 8, !tbaa !8
  br label %70

69:                                               ; preds = %60
  br label %70

70:                                               ; preds = %69, %67
  %71 = phi ptr [ %68, %67 ], [ null, %69 ]
  %72 = load ptr, ptr %19, align 8, !tbaa !3
  %73 = load i32, ptr %72, align 4, !tbaa !11
  %74 = icmp ne i32 %73, 0
  br i1 %74, label %75, label %77

75:                                               ; preds = %70
  %76 = load ptr, ptr %26, align 8, !tbaa !8
  br label %78

77:                                               ; preds = %70
  br label %78

78:                                               ; preds = %77, %75
  %79 = phi ptr [ %76, %75 ], [ null, %77 ]
  %80 = call zeroext i1 @GetIpoptCurrentIterate(ptr noundef %32, i1 noundef zeroext %35, i32 noundef %37, ptr noundef %45, ptr noundef %53, ptr noundef %61, i32 noundef %63, ptr noundef %71, ptr noundef %79)
  %81 = select i1 %80, i32 0, i32 1
  call void @llvm.lifetime.end.p0(i64 8, ptr %27) #6
  ret i32 %81
}