; Function Attrs: nounwind uwtable
define range(i32 0, 2) i32 @ipgetcurriterate_(ptr noundef readonly captures(none) %0, ptr noundef readonly captures(none) %1, ptr noundef readonly captures(none) %2, ptr noundef readonly captures(none) %3, ptr noundef readonly captures(none) %4, ptr noundef readonly captures(none) %5, ptr noundef readonly captures(none) %6, ptr noundef %7, ptr noundef %8, ptr noundef %9, ptr noundef readonly captures(none) %10, ptr noundef %11, ptr noundef %12) local_unnamed_addr #0 {
  %14 = load ptr, ptr %0, align 8, !tbaa !23
  %15 = getelementptr inbounds nuw i8, ptr %14, i64 64
  %16 = load ptr, ptr %15, align 8, !tbaa !7
  %17 = load i32, ptr %1, align 4, !tbaa !3
  %18 = icmp ne i32 %17, 0
  %19 = load i32, ptr %6, align 4, !tbaa !3
  %20 = load i32, ptr %2, align 4, !tbaa !3
  %.not = icmp eq i32 %20, 0
  %21 = select i1 %.not, ptr null, ptr %7
  %22 = load i32, ptr %3, align 4, !tbaa !3
  %.not15 = icmp eq i32 %22, 0
  %23 = select i1 %.not15, ptr null, ptr %8
  %24 = select i1 %.not15, ptr null, ptr %9
  %25 = load i32, ptr %10, align 4, !tbaa !3
  %26 = load i32, ptr %4, align 4, !tbaa !3
  %.not16 = icmp eq i32 %26, 0
  %27 = select i1 %.not16, ptr null, ptr %11
  %28 = load i32, ptr %5, align 4, !tbaa !3
  %.not17 = icmp eq i32 %28, 0
  %29 = select i1 %.not17, ptr null, ptr %12
  %30 = tail call zeroext i1 @GetIpoptCurrentIterate(ptr noundef %16, i1 noundef zeroext %18, i32 noundef %19, ptr noundef %21, ptr noundef %23, ptr noundef %24, i32 noundef %25, ptr noundef %27, ptr noundef %29) #8
  %not. = xor i1 %30, true
  %31 = zext i1 %not. to i32
  ret i32 %31
}